; Function Attrs: nounwind uwtable
define range(i32 -1, 1) i32 @H5Tcommit2(i64 noundef %0, ptr noundef %1, i64 noundef %2, i64 noundef %3, i64 noundef %4, i64 noundef %5) local_unnamed_addr #0 {
  %7 = alloca %struct.H5CX_node_t, align 8
  call void @llvm.lifetime.start.p0(i64 480, ptr nonnull %7) #9
  call void @llvm.memset.p0.i64(ptr noundef nonnull align 8 dereferenceable(480) %7, i8 0, i64 480, i1 false)
  %8 = load i8, ptr @H5_libinit_g, align 1, !tbaa !3, !range !7, !noundef !8
  %9 = trunc nuw i8 %8 to i1
  %10 = load i8, ptr @H5_libterm_g, align 1, !range !7
  %11 = trunc nuw i8 %10 to i1
  %12 = select i1 %9, i1 true, i1 %11
  br i1 %12, label %20, label %13, !prof !9

13:                                               ; preds = %6
  %14 = tail call i32 @H5_init_library() #9
  %15 = icmp slt i32 %14, 0
  br i1 %15, label %16, label %._crit_edge, !prof !10

._crit_edge:                                      ; preds = %13
  %.pre = load i8, ptr @H5_libterm_g, align 1, !range !7
  br label %20

16:                                               ; preds = %13
  %17 = load i64, ptr @H5E_FUNC_g, align 8, !tbaa !11
  %18 = load i64, ptr @H5E_CANTINIT_g, align 8, !tbaa !11
  %19 = tail call i32 (ptr, ptr, i32, i64, i64, ptr, ...) @H5E_printf_stack(ptr noundef nonnull @.str, ptr noundef nonnull @__func__.H5Tcommit2, i32 noundef 164, i64 noundef %17, i64 noundef %18, ptr noundef nonnull @.str.1) #9
  br label %.thread20

20:                                               ; preds = %._crit_edge, %6
  %21 = phi i8 [ %.pre, %._crit_edge ], [ %10, %6 ]
  %22 = load i8, ptr @H5T_init_g, align 1, !tbaa !3, !range !7, !noundef !8
  %23 = trunc nuw i8 %22 to i1
  %24 = trunc nuw i8 %21 to i1
  %25 = select i1 %23, i1 true, i1 %24
  br i1 %25, label %33, label %26, !prof !9

26:                                               ; preds = %20
  store i8 1, ptr @H5T_init_g, align 1, !tbaa !3
  %27 = tail call i32 @H5T__init_package() #9
  %28 = icmp slt i32 %27, 0
  br i1 %28, label %29, label %33, !prof !13

29:                                               ; preds = %26
  store i8 0, ptr @H5T_init_g, align 1, !tbaa !3
  %30 = load i64, ptr @H5E_FUNC_g, align 8, !tbaa !11
  %31 = load i64, ptr @H5E_CANTINIT_g, align 8, !tbaa !11
  %32 = tail call i32 (ptr, ptr, i32, i64, i64, ptr, ...) @H5E_printf_stack(ptr noundef nonnull @.str, ptr noundef nonnull @__func__.H5Tcommit2, i32 noundef 164, i64 noundef %30, i64 noundef %31, ptr noundef nonnull @.str.2) #9
  br label %.thread20

33:                                               ; preds = %20, %26
  %34 = call i32 @H5CX_push(ptr noundef nonnull %7) #9
  %35 = icmp slt i32 %34, 0
  br i1 %35, label %36, label %40, !prof !10

36:                                               ; preds = %33
  %37 = load i64, ptr @H5E_FUNC_g, align 8, !tbaa !11
  %38 = load i64, ptr @H5E_CANTSET_g, align 8, !tbaa !11
  %39 = call i32 (ptr, ptr, i32, i64, i64, ptr, ...) @H5E_printf_stack(ptr noundef nonnull @.str, ptr noundef nonnull @__func__.H5Tcommit2, i32 noundef 164, i64 noundef %37, i64 noundef %38, ptr noundef nonnull @.str.3) #9
  br label %.thread20

40:                                               ; preds = %33
  %41 = call i32 @H5E_clear_stack() #9
  %42 = call fastcc i32 @H5T__commit_api_common(i64 noundef %0, ptr noundef %1, i64 noundef %2, i64 noundef %3, i64 noundef %4, i64 noundef %5, ptr noundef null, ptr noundef null)
  %43 = icmp slt i32 %42, 0
  br i1 %43, label %.thread25, label %48, !prof !14

.thread25:                                        ; preds = %40
  %44 = load i64, ptr @H5E_DATATYPE_g, align 8, !tbaa !11
  %45 = load i64, ptr @H5E_CANTOPENOBJ_g, align 8, !tbaa !11
  %46 = call i32 (ptr, ptr, i32, i64, i64, ptr, ...) @H5E_printf_stack(ptr noundef nonnull @.str, ptr noundef nonnull @__func__.H5Tcommit2, i32 noundef 169, i64 noundef %44, i64 noundef %45, ptr noundef nonnull @.str.4) #9
  %47 = call i32 @H5CX_pop(i1 noundef zeroext true) #9
  br label %.thread20

48:                                               ; preds = %40
  %49 = call i32 @H5CX_pop(i1 noundef zeroext true) #9
  br label %51

.thread20:                                        ; preds = %16, %29, %36, %.thread25
  %50 = call i32 @H5E_dump_api_stack() #9
  br label %51

51:                                               ; preds = %48, %.thread20
  %.0131823 = phi i32 [ -1, %.thread20 ], [ 0, %48 ]
  call void @llvm.lifetime.end.p0(i64 480, ptr nonnull %7) #9
  ret i32 %.0131823
}